; Function Attrs: mustprogress uwtable
define dso_local void @_ZN17cmFindPathCommandC2ENSt7__cxx1112basic_stringIcSt11char_traitsIcESaIcEEER17cmExecutionStatus(ptr noundef nonnull align 8 dereferenceable(601) %0, ptr noundef nonnull %1, ptr noundef nonnull align 1 %2) unnamed_addr #3 align 2 personality ptr @__gxx_personality_v0 {
  %4 = alloca %"class.std::__cxx11::basic_string", align 8
  call void @_ZNSt7__cxx1112basic_stringIcSt11char_traitsIcESaIcEEC1EOS4_(ptr noundef nonnull align 8 dereferenceable(32) %4, ptr noundef nonnull align 8 dereferenceable(32) %1) #12
  invoke void @_ZN10cmFindBaseC2ENSt7__cxx1112basic_stringIcSt11char_traitsIcESaIcEEER17cmExecutionStatus(ptr noundef nonnull align 8 dereferenceable(600) %0, ptr noundef nonnull %4, ptr noundef nonnull align 1 %2)
          to label %5 unwind label %14

5:                                                ; preds = %3
  call void @_ZNSt7__cxx1112basic_stringIcSt11char_traitsIcESaIcEED1Ev(ptr noundef nonnull align 8 dereferenceable(32) %4) #12
  store ptr getelementptr inbounds ({ [5 x ptr] }, ptr @_ZTV17cmFindPathCommand, i64 0, i32 0, i64 2), ptr %0, align 8
  %6 = getelementptr inbounds i8, ptr %0, i64 528
  %7 = invoke noundef nonnull align 8 dereferenceable(32) ptr @_ZNSt7__cxx1112basic_stringIcSt11char_traitsIcESaIcEEaSEPKc(ptr noundef nonnull align 8 dereferenceable(32) %6, ptr noundef nonnull @.str)
          to label %8 unwind label %16

8:                                                ; preds = %5
  %9 = getelementptr inbounds i8, ptr %0, i64 600
  store i8 0, ptr %9, align 8
  %10 = getelementptr inbounds i8, ptr %0, i64 424
  %11 = invoke noundef nonnull align 8 dereferenceable(32) ptr @_ZNSt7__cxx1112basic_stringIcSt11char_traitsIcESaIcEEaSEPKc(ptr noundef nonnull align 8 dereferenceable(32) %10, ptr noundef nonnull @.str.1)
          to label %12 unwind label %16

12:                                               ; preds = %8
  %13 = getelementptr inbounds i8, ptr %0, i64 456
  store i32 1, ptr %13, align 8
  ret void

14:                                               ; preds = %3
  %15 = landingpad { ptr, i32 }
          cleanup
  call void @_ZNSt7__cxx1112basic_stringIcSt11char_traitsIcESaIcEED1Ev(ptr noundef nonnull align 8 dereferenceable(32) %4) #12
  br label %18

16:                                               ; preds = %8, %5
  %17 = landingpad { ptr, i32 }
          cleanup
  call void @_ZN10cmFindBaseD2Ev(ptr noundef nonnull align 8 dereferenceable(600) %0) #12
  br label %18

18:                                               ; preds = %16, %14
  %.pn = phi { ptr, i32 } [ %17, %16 ], [ %15, %14 ]
  resume { ptr, i32 } %.pn
}